target datalayout = "e-m:e-p270:32:32-p271:32:32-p272:64:64-i64:64-i128:128-f80:128-n8:16:32:64-S128"
target triple = "x86_64-pc-linux-gnu"

%struct.AVFilterContext = type { ptr, ptr, ptr, ptr, ptr, i32, ptr, ptr, i32, ptr, ptr, i32, i32, ptr, ptr, ptr, ptr, i32, ptr, i32, i32 }
%struct.GuidedContext = type { ptr, %struct.FFFrameSync, i32, float, i32, i32, i32, i32, i32, i32, i32, i32, [4 x i32], [4 x i32], ptr, ptr, ptr, ptr, ptr, ptr, ptr, ptr, ptr, ptr, ptr, ptr, ptr }
%struct.FFFrameSync = type { ptr, ptr, i32, %struct.AVRational, i64, ptr, ptr, i32, i32, i8, i8, ptr, i32, i32, i32, i32 }
%struct.AVRational = type { i32, i32 }
%struct.ThreadData = type { i32, i32, ptr, ptr, i32, i32 }

; Function Attrs: nounwind uwtable
define internal i32 @box_slice(ptr noundef %0, ptr noundef %1, i32 noundef %2, i32 noundef %3) #2 {
  %5 = alloca ptr, align 8
  %6 = alloca ptr, align 8
  %7 = alloca i32, align 4
  %8 = alloca i32, align 4
  %9 = alloca ptr, align 8
  %10 = alloca ptr, align 8
  %11 = alloca i32, align 4
  %12 = alloca i32, align 4
  %13 = alloca i32, align 4
  %14 = alloca i32, align 4
  %15 = alloca i32, align 4
  %16 = alloca i32, align 4
  %17 = alloca i32, align 4
  %18 = alloca ptr, align 8
  %19 = alloca ptr, align 8
  %20 = alloca i32, align 4
  %21 = alloca i32, align 4
  %22 = alloca i32, align 4
  %23 = alloca i32, align 4
  %24 = alloca i32, align 4
  %25 = alloca float, align 4
  %26 = alloca i32, align 4
  %27 = alloca i32, align 4
  %28 = alloca i32, align 4
  %29 = alloca i32, align 4
  store ptr %0, ptr %5, align 8, !tbaa !4
  store ptr %1, ptr %6, align 8, !tbaa !130
  store i32 %2, ptr %7, align 4, !tbaa !28
  store i32 %3, ptr %8, align 4, !tbaa !28
  call void @llvm.lifetime.start.p0(i64 8, ptr %9) #10
  %30 = load ptr, ptr %5, align 8, !tbaa !4
  %31 = getelementptr inbounds nuw %struct.AVFilterContext, ptr %30, i32 0, i32 9
  %32 = load ptr, ptr %31, align 8, !tbaa !9
  store ptr %32, ptr %9, align 8, !tbaa !22
  call void @llvm.lifetime.start.p0(i64 8, ptr %10) #10
  %33 = load ptr, ptr %6, align 8, !tbaa !130
  store ptr %33, ptr %10, align 8, !tbaa !131
  call void @llvm.lifetime.start.p0(i64 4, ptr %11) #10
  %34 = load ptr, ptr %10, align 8, !tbaa !131
  %35 = getelementptr inbounds nuw %struct.ThreadData, ptr %34, i32 0, i32 0
  %36 = load i32, ptr %35, align 8, !tbaa !96
  store i32 %36, ptr %11, align 4, !tbaa !28
  call void @llvm.lifetime.start.p0(i64 4, ptr %12) #10
  %37 = load ptr, ptr %10, align 8, !tbaa !131
  %38 = getelementptr inbounds nuw %struct.ThreadData, ptr %37, i32 0, i32 1
  %39 = load i32, ptr %38, align 4, !tbaa !98
  store i32 %39, ptr %12, align 4, !tbaa !28
  call void @llvm.lifetime.start.p0(i64 4, ptr %13) #10
  %40 = load ptr, ptr %10, align 8, !tbaa !131
  %41 = getelementptr inbounds nuw %struct.ThreadData, ptr %40, i32 0, i32 4
  %42 = load i32, ptr %41, align 8, !tbaa !99
  store i32 %42, ptr %13, align 4, !tbaa !28
  call void @llvm.lifetime.start.p0(i64 4, ptr %14) #10
  %43 = load ptr, ptr %10, align 8, !tbaa !131
  %44 = getelementptr inbounds nuw %struct.ThreadData, ptr %43, i32 0, i32 5
  %45 = load i32, ptr %44, align 4, !tbaa !100
  store i32 %45, ptr %14, align 4, !tbaa !28
  call void @llvm.lifetime.start.p0(i64 4, ptr %15) #10
  %46 = load i32, ptr %12, align 4, !tbaa !28
  %47 = load i32, ptr %7, align 4, !tbaa !28
  %48 = mul nsw i32 %46, %47
  %49 = load i32, ptr %8, align 4, !tbaa !28
  %50 = sdiv i32 %48, %49
  store i32 %50, ptr %15, align 4, !tbaa !28
  call void @llvm.lifetime.start.p0(i64 4, ptr %16) #10
  %51 = load i32, ptr %12, align 4, !tbaa !28
  %52 = load i32, ptr %7, align 4, !tbaa !28
  %53 = add nsw i32 %52, 1
  %54 = mul nsw i32 %51, %53
  %55 = load i32, ptr %8, align 4, !tbaa !28
  %56 = sdiv i32 %54, %55
  store i32 %56, ptr %16, align 4, !tbaa !28
  call void @llvm.lifetime.start.p0(i64 4, ptr %17) #10
  %57 = load ptr, ptr %9, align 8, !tbaa !22
  %58 = getelementptr inbounds nuw %struct.GuidedContext, ptr %57, i32 0, i32 2
  %59 = load i32, ptr %58, align 8, !tbaa !86
  store i32 %59, ptr %17, align 4, !tbaa !28
  call void @llvm.lifetime.start.p0(i64 8, ptr %18) #10
  %60 = load ptr, ptr %10, align 8, !tbaa !131
  %61 = getelementptr inbounds nuw %struct.ThreadData, ptr %60, i32 0, i32 2
  %62 = load ptr, ptr %61, align 8, !tbaa !101
  store ptr %62, ptr %18, align 8, !tbaa !92
  call void @llvm.lifetime.start.p0(i64 8, ptr %19) #10
  %63 = load ptr, ptr %10, align 8, !tbaa !131
  %64 = getelementptr inbounds nuw %struct.ThreadData, ptr %63, i32 0, i32 3
  %65 = load ptr, ptr %64, align 8, !tbaa !102
  store ptr %65, ptr %19, align 8, !tbaa !92
  call void @llvm.lifetime.start.p0(i64 4, ptr %20) #10
  call void @llvm.lifetime.start.p0(i64 4, ptr %21) #10
  %66 = load i32, ptr %17, align 4, !tbaa !28
  %67 = shl i32 %66, 1
  %68 = add nsw i32 %67, 1
  store i32 %68, ptr %20, align 4, !tbaa !28
  %69 = load i32, ptr %20, align 4, !tbaa !28
  %70 = load i32, ptr %20, align 4, !tbaa !28
  %71 = mul nsw i32 %69, %70
  store i32 %71, ptr %21, align 4, !tbaa !28
  call void @llvm.lifetime.start.p0(i64 4, ptr %22) #10
  %72 = load i32, ptr %15, align 4, !tbaa !28
  store i32 %72, ptr %22, align 4, !tbaa !28
  br label %73

73:                                               ; preds = %174, %4
  %74 = load i32, ptr %22, align 4, !tbaa !28
  %75 = load i32, ptr %16, align 4, !tbaa !28
  %76 = icmp slt i32 %74, %75
  br i1 %76, label %78, label %77

77:                                               ; preds = %73
  store i32 2, ptr %23, align 4
  call void @llvm.lifetime.end.p0(i64 4, ptr %22) #10
  br label %177

78:                                               ; preds = %73
  call void @llvm.lifetime.start.p0(i64 4, ptr %24) #10
  store i32 0, ptr %24, align 4, !tbaa !28
  br label %79

79:                                               ; preds = %170, %78
  %80 = load i32, ptr %24, align 4, !tbaa !28
  %81 = load i32, ptr %11, align 4, !tbaa !28
  %82 = icmp slt i32 %80, %81
  br i1 %82, label %84, label %83

83:                                               ; preds = %79
  store i32 5, ptr %23, align 4
  call void @llvm.lifetime.end.p0(i64 4, ptr %24) #10
  br label %173

84:                                               ; preds = %79
  call void @llvm.lifetime.start.p0(i64 4, ptr %25) #10
  store float 0.000000e+00, ptr %25, align 4, !tbaa !90
  call void @llvm.lifetime.start.p0(i64 4, ptr %26) #10
  %85 = load i32, ptr %17, align 4, !tbaa !28
  %86 = sub nsw i32 0, %85
  store i32 %86, ptr %26, align 4, !tbaa !28
  br label %87

87:                                               ; preds = %154, %84
  %88 = load i32, ptr %26, align 4, !tbaa !28
  %89 = load i32, ptr %17, align 4, !tbaa !28
  %90 = icmp sle i32 %88, %89
  br i1 %90, label %92, label %91

91:                                               ; preds = %87
  store i32 8, ptr %23, align 4
  call void @llvm.lifetime.end.p0(i64 4, ptr %26) #10
  br label %157

92:                                               ; preds = %87
  call void @llvm.lifetime.start.p0(i64 4, ptr %27) #10
  %93 = load i32, ptr %17, align 4, !tbaa !28
  %94 = sub nsw i32 0, %93
  store i32 %94, ptr %27, align 4, !tbaa !28
  br label %95

95:                                               ; preds = %150, %92
  %96 = load i32, ptr %27, align 4, !tbaa !28
  %97 = load i32, ptr %17, align 4, !tbaa !28
  %98 = icmp sle i32 %96, %97
  br i1 %98, label %100, label %99

99:                                               ; preds = %95
  store i32 11, ptr %23, align 4
  call void @llvm.lifetime.end.p0(i64 4, ptr %27) #10
  br label %153

100:                                              ; preds = %95
  call void @llvm.lifetime.start.p0(i64 4, ptr %28) #10
  %101 = load i32, ptr %22, align 4, !tbaa !28
  %102 = load i32, ptr %26, align 4, !tbaa !28
  %103 = add nsw i32 %101, %102
  store i32 %103, ptr %28, align 4, !tbaa !28
  call void @llvm.lifetime.start.p0(i64 4, ptr %29) #10
  %104 = load i32, ptr %24, align 4, !tbaa !28
  %105 = load i32, ptr %27, align 4, !tbaa !28
  %106 = add nsw i32 %104, %105
  store i32 %106, ptr %29, align 4, !tbaa !28
  %107 = load i32, ptr %28, align 4, !tbaa !28
  %108 = icmp slt i32 %107, 0
  br i1 %108, label %109, label %110

109:                                              ; preds = %100
  br label %121

110:                                              ; preds = %100
  %111 = load i32, ptr %28, align 4, !tbaa !28
  %112 = load i32, ptr %12, align 4, !tbaa !28
  %113 = icmp sge i32 %111, %112
  br i1 %113, label %114, label %117

114:                                              ; preds = %110
  %115 = load i32, ptr %12, align 4, !tbaa !28
  %116 = sub nsw i32 %115, 1
  br label %119

117:                                              ; preds = %110
  %118 = load i32, ptr %28, align 4, !tbaa !28
  br label %119

119:                                              ; preds = %117, %114
  %120 = phi i32 [ %116, %114 ], [ %118, %117 ]
  br label %121

121:                                              ; preds = %119, %109
  %122 = phi i32 [ 0, %109 ], [ %120, %119 ]
  store i32 %122, ptr %28, align 4, !tbaa !28
  %123 = load i32, ptr %29, align 4, !tbaa !28
  %124 = icmp slt i32 %123, 0
  br i1 %124, label %125, label %126

125:                                              ; preds = %121
  br label %137

126:                                              ; preds = %121
  %127 = load i32, ptr %29, align 4, !tbaa !28
  %128 = load i32, ptr %11, align 4, !tbaa !28
  %129 = icmp sge i32 %127, %128
  br i1 %129, label %130, label %133

130:                                              ; preds = %126
  %131 = load i32, ptr %11, align 4, !tbaa !28
  %132 = sub nsw i32 %131, 1
  br label %135

133:                                              ; preds = %126
  %134 = load i32, ptr %29, align 4, !tbaa !28
  br label %135

135:                                              ; preds = %133, %130
  %136 = phi i32 [ %132, %130 ], [ %134, %133 ]
  br label %137

137:                                              ; preds = %135, %125
  %138 = phi i32 [ 0, %125 ], [ %136, %135 ]
  store i32 %138, ptr %29, align 4, !tbaa !28
  %139 = load ptr, ptr %18, align 8, !tbaa !92
  %140 = load i32, ptr %28, align 4, !tbaa !28
  %141 = load i32, ptr %13, align 4, !tbaa !28
  %142 = mul nsw i32 %140, %141
  %143 = load i32, ptr %29, align 4, !tbaa !28
  %144 = add nsw i32 %142, %143
  %145 = sext i32 %144 to i64
  %146 = getelementptr inbounds float, ptr %139, i64 %145
  %147 = load float, ptr %146, align 4, !tbaa !90
  %148 = load float, ptr %25, align 4, !tbaa !90
  %149 = fadd nsz float %148, %147
  store float %149, ptr %25, align 4, !tbaa !90
  call void @llvm.lifetime.end.p0(i64 4, ptr %29) #10
  call void @llvm.lifetime.end.p0(i64 4, ptr %28) #10
  br label %150

150:                                              ; preds = %137
  %151 = load i32, ptr %27, align 4, !tbaa !28
  %152 = add nsw i32 %151, 1
  store i32 %152, ptr %27, align 4, !tbaa !28
  br label %95, !llvm.loop !133

153:                                              ; preds = %99
  br label %154

154:                                              ; preds = %153
  %155 = load i32, ptr %26, align 4, !tbaa !28
  %156 = add nsw i32 %155, 1
  store i32 %156, ptr %26, align 4, !tbaa !28
  br label %87, !llvm.loop !134

157:                                              ; preds = %91
  %158 = load float, ptr %25, align 4, !tbaa !90
  %159 = load i32, ptr %21, align 4, !tbaa !28
  %160 = sitofp i32 %159 to float
  %161 = fdiv nsz float %158, %160
  %162 = load ptr, ptr %19, align 8, !tbaa !92
  %163 = load i32, ptr %22, align 4, !tbaa !28
  %164 = load i32, ptr %14, align 4, !tbaa !28
  %165 = mul nsw i32 %163, %164
  %166 = load i32, ptr %24, align 4, !tbaa !28
  %167 = add nsw i32 %165, %166
  %168 = sext i32 %167 to i64
  %169 = getelementptr inbounds float, ptr %162, i64 %168
  store float %161, ptr %169, align 4, !tbaa !90
  call void @llvm.lifetime.end.p0(i64 4, ptr %25) #10
  br label %170

170:                                              ; preds = %157
  %171 = load i32, ptr %24, align 4, !tbaa !28
  %172 = add nsw i32 %171, 1
  store i32 %172, ptr %24, align 4, !tbaa !28
  br label %79, !llvm.loop !135

173:                                              ; preds = %83
  br label %174

174:                                              ; preds = %173
  %175 = load i32, ptr %22, align 4, !tbaa !28
  %176 = add nsw i32 %175, 1
  store i32 %176, ptr %22, align 4, !tbaa !28
  br label %73, !llvm.loop !136

177:                                              ; preds = %77
  store i32 1, ptr %23, align 4
  call void @llvm.lifetime.end.p0(i64 4, ptr %21) #10
  call void @llvm.lifetime.end.p0(i64 4, ptr %20) #10
  call void @llvm.lifetime.end.p0(i64 8, ptr %19) #10
  call void @llvm.lifetime.end.p0(i64 8, ptr %18) #10
  call void @llvm.lifetime.end.p0(i64 4, ptr %17) #10
  call void @llvm.lifetime.end.p0(i64 4, ptr %16) #10
  call void @llvm.lifetime.end.p0(i64 4, ptr %15) #10
  call void @llvm.lifetime.end.p0(i64 4, ptr %14) #10
  call void @llvm.lifetime.end.p0(i64 4, ptr %13) #10
  call void @llvm.lifetime.end.p0(i64 4, ptr %12) #10
  call void @llvm.lifetime.end.p0(i64 4, ptr %11) #10
  call void @llvm.lifetime.end.p0(i64 8, ptr %10) #10
  call void @llvm.lifetime.end.p0(i64 8, ptr %9) #10
  ret i32 0
}