; Function Attrs: nofree norecurse nosync nounwind memory(readwrite, inaccessiblemem: none) uwtable
define internal noundef i32 @box_slice(ptr noundef readonly captures(none) %0, ptr noundef readonly captures(none) %1, i32 noundef %2, i32 noundef %3) #7 {
  %5 = getelementptr inbounds nuw i8, ptr %0, i64 72
  %6 = load ptr, ptr %5, align 8, !tbaa !4
  %7 = load i32, ptr %1, align 8, !tbaa !82
  %8 = getelementptr inbounds nuw i8, ptr %1, i64 4
  %9 = load i32, ptr %8, align 4, !tbaa !84
  %10 = getelementptr inbounds nuw i8, ptr %1, i64 24
  %11 = load i32, ptr %10, align 8, !tbaa !85
  %12 = getelementptr inbounds nuw i8, ptr %1, i64 28
  %13 = load i32, ptr %12, align 4, !tbaa !86
  %14 = mul nsw i32 %9, %2
  %15 = sdiv i32 %14, %3
  %16 = add nsw i32 %2, 1
  %17 = mul nsw i32 %9, %16
  %18 = sdiv i32 %17, %3
  %19 = getelementptr inbounds nuw i8, ptr %6, i64 104
  %20 = load i32, ptr %19, align 8, !tbaa !106
  %21 = getelementptr inbounds nuw i8, ptr %1, i64 8
  %22 = load ptr, ptr %21, align 8, !tbaa !87
  %23 = getelementptr inbounds nuw i8, ptr %1, i64 16
  %24 = load ptr, ptr %23, align 8, !tbaa !88
  %25 = icmp slt i32 %15, %18
  br i1 %25, label %.preheader68.lr.ph, label %._crit_edge81

.preheader68.lr.ph:                               ; preds = %4
  %26 = shl i32 %20, 1
  %27 = or disjoint i32 %26, 1
  %28 = mul nsw i32 %27, %27
  %29 = icmp sgt i32 %7, 0
  %30 = sub nsw i32 0, %20
  %31 = add nsw i32 %9, -1
  %32 = add nsw i32 %7, -1
  %33 = uitofp nneg i32 %28 to float
  %34 = fdiv nsz float 0.000000e+00, %33
  br i1 %29, label %.preheader68.lr.ph.split.us, label %._crit_edge81

.preheader68.lr.ph.split.us:                      ; preds = %.preheader68.lr.ph
  %.not72 = icmp slt i32 %20, 0
  %35 = sext i32 %15 to i64
  %36 = sext i32 %13 to i64
  %wide.trip.count103 = sext i32 %18 to i64
  %wide.trip.count98 = zext nneg i32 %7 to i64
  br i1 %.not72, label %.preheader68.us.us, label %.preheader68.us

.preheader68.us.us:                               ; preds = %.preheader68.lr.ph.split.us, %._crit_edge78.split.us.us.us
  %indvars.iv100 = phi i64 [ %indvars.iv.next101, %._crit_edge78.split.us.us.us ], [ %35, %.preheader68.lr.ph.split.us ]
  %37 = mul nsw i64 %indvars.iv100, %36
  %invariant.gep106 = getelementptr float, ptr %24, i64 %37
  br label %38

38:                                               ; preds = %38, %.preheader68.us.us
  %indvars.iv95 = phi i64 [ %indvars.iv.next96, %38 ], [ 0, %.preheader68.us.us ]
  %gep107 = getelementptr float, ptr %invariant.gep106, i64 %indvars.iv95
  store float %34, ptr %gep107, align 4, !tbaa !78
  %indvars.iv.next96 = add nuw nsw i64 %indvars.iv95, 1
  %exitcond99.not = icmp eq i64 %indvars.iv.next96, %wide.trip.count98
  br i1 %exitcond99.not, label %._crit_edge78.split.us.us.us, label %38, !llvm.loop !114

._crit_edge78.split.us.us.us:                     ; preds = %38
  %indvars.iv.next101 = add nsw i64 %indvars.iv100, 1
  %exitcond104.not = icmp eq i64 %indvars.iv.next101, %wide.trip.count103
  br i1 %exitcond104.not, label %._crit_edge81, label %.preheader68.us.us, !llvm.loop !115

.preheader68.us:                                  ; preds = %.preheader68.lr.ph.split.us, %._crit_edge78.split.us83
  %indvars.iv90 = phi i64 [ %indvars.iv.next91, %._crit_edge78.split.us83 ], [ %35, %.preheader68.lr.ph.split.us ]
  %39 = mul nsw i64 %indvars.iv90, %36
  %40 = trunc nsw i64 %indvars.iv90 to i32
  %invariant.gep = getelementptr float, ptr %24, i64 %39
  br label %.preheader.lr.ph.us

.preheader.lr.ph.us:                              ; preds = %.preheader68.us, %._crit_edge75.split.us
  %indvars.iv = phi i64 [ 0, %.preheader68.us ], [ %indvars.iv.next, %._crit_edge75.split.us ]
  %41 = trunc nuw nsw i64 %indvars.iv to i32
  br label %.preheader.us

42:                                               ; preds = %.preheader.us, %42
  %.071.us = phi i32 [ %30, %.preheader.us ], [ %52, %42 ]
  %.170.us = phi float [ %.05873.us, %.preheader.us ], [ %51, %42 ]
  %43 = add nsw i32 %.071.us, %41
  %44 = icmp slt i32 %43, 0
  %.not67.us = icmp slt i32 %43, %7
  %45 = select i1 %.not67.us, i32 %43, i32 %32
  %46 = select i1 %44, i32 0, i32 %45
  %47 = add nsw i32 %46, %57
  %48 = sext i32 %47 to i64
  %49 = getelementptr inbounds float, ptr %22, i64 %48
  %50 = load float, ptr %49, align 4, !tbaa !78
  %51 = fadd nsz float %.170.us, %50
  %52 = add i32 %.071.us, 1
  %exitcond.not = icmp eq i32 %.071.us, %20
  br i1 %exitcond.not, label %._crit_edge.us, label %42, !llvm.loop !116

.preheader.us:                                    ; preds = %._crit_edge.us, %.preheader.lr.ph.us
  %.05774.us = phi i32 [ %30, %.preheader.lr.ph.us ], [ %58, %._crit_edge.us ]
  %.05873.us = phi float [ 0.000000e+00, %.preheader.lr.ph.us ], [ %51, %._crit_edge.us ]
  %53 = add nsw i32 %.05774.us, %40
  %54 = icmp slt i32 %53, 0
  %.not66.us = icmp slt i32 %53, %9
  %55 = select i1 %.not66.us, i32 %53, i32 %31
  %56 = select i1 %54, i32 0, i32 %55
  %57 = mul nsw i32 %56, %11
  br label %42

._crit_edge.us:                                   ; preds = %42
  %58 = add i32 %.05774.us, 1
  %exitcond87.not = icmp eq i32 %.05774.us, %20
  br i1 %exitcond87.not, label %._crit_edge75.split.us, label %.preheader.us, !llvm.loop !117

._crit_edge75.split.us:                           ; preds = %._crit_edge.us
  %59 = fdiv nsz float %51, %33
  %gep = getelementptr float, ptr %invariant.gep, i64 %indvars.iv
  store float %59, ptr %gep, align 4, !tbaa !78
  %indvars.iv.next = add nuw nsw i64 %indvars.iv, 1
  %exitcond89.not = icmp eq i64 %indvars.iv.next, %wide.trip.count98
  br i1 %exitcond89.not, label %._crit_edge78.split.us83, label %.preheader.lr.ph.us, !llvm.loop !114

._crit_edge78.split.us83:                         ; preds = %._crit_edge75.split.us
  %indvars.iv.next91 = add nsw i64 %indvars.iv90, 1
  %exitcond94.not = icmp eq i64 %indvars.iv.next91, %wide.trip.count103
  br i1 %exitcond94.not, label %._crit_edge81, label %.preheader68.us, !llvm.loop !115

._crit_edge81:                                    ; preds = %._crit_edge78.split.us83, %._crit_edge78.split.us.us.us, %.preheader68.lr.ph, %4
  ret i32 0
}